target datalayout = "e-m:e-p270:32:32-p271:32:32-p272:64:64-i64:64-i128:128-f80:128-n8:16:32:64-S128"
target triple = "x86_64-pc-linux-gnu"

%struct.lua_TValue = type { %union.Value, [1 x i32], i32 }
%union.Value = type { ptr }
%struct.lua_State = type { i8, i8, i8, i8, i8, i8, i8, ptr, ptr, ptr, ptr, ptr, ptr, ptr, ptr, i32, i32, i16, i16, i32, ptr, ptr, ptr, ptr, ptr }
%struct.CallInfo = type { ptr, ptr, ptr, ptr, i32, i32 }

; Function Attrs: mustprogress nounwind uwtable
define hidden void @_Z12luau_poscallP9lua_StateP10lua_TValue(ptr noundef %0, ptr noundef %1) #6 {
  %3 = alloca ptr, align 8
  %4 = alloca ptr, align 8
  %5 = alloca ptr, align 8
  %6 = alloca ptr, align 8
  %7 = alloca ptr, align 8
  %8 = alloca ptr, align 8
  %9 = alloca ptr, align 8
  %10 = alloca i32, align 4
  %11 = alloca ptr, align 8
  %12 = alloca ptr, align 8
  store ptr %0, ptr %3, align 8, !tbaa !4
  store ptr %1, ptr %4, align 8, !tbaa !70
  call void @llvm.lifetime.start.p0(i64 8, ptr %5) #11
  %13 = load ptr, ptr %3, align 8, !tbaa !4
  %14 = getelementptr inbounds nuw %struct.lua_State, ptr %13, i32 0, i32 10
  %15 = load ptr, ptr %14, align 8, !tbaa !26
  store ptr %15, ptr %5, align 8, !tbaa !116
  call void @llvm.lifetime.start.p0(i64 8, ptr %6) #11
  %16 = load ptr, ptr %5, align 8, !tbaa !116
  %17 = getelementptr inbounds %struct.CallInfo, ptr %16, i64 -1
  store ptr %17, ptr %6, align 8, !tbaa !116
  call void @llvm.lifetime.start.p0(i64 8, ptr %7) #11
  %18 = load ptr, ptr %5, align 8, !tbaa !116
  %19 = getelementptr inbounds nuw %struct.CallInfo, ptr %18, i32 0, i32 1
  %20 = load ptr, ptr %19, align 8, !tbaa !35
  store ptr %20, ptr %7, align 8, !tbaa !70
  call void @llvm.lifetime.start.p0(i64 8, ptr %8) #11
  %21 = load ptr, ptr %4, align 8, !tbaa !70
  store ptr %21, ptr %8, align 8, !tbaa !70
  call void @llvm.lifetime.start.p0(i64 8, ptr %9) #11
  %22 = load ptr, ptr %3, align 8, !tbaa !4
  %23 = getelementptr inbounds nuw %struct.lua_State, ptr %22, i32 0, i32 7
  %24 = load ptr, ptr %23, align 8, !tbaa !25
  store ptr %24, ptr %9, align 8, !tbaa !70
  call void @llvm.lifetime.start.p0(i64 4, ptr %10) #11
  %25 = load ptr, ptr %5, align 8, !tbaa !116
  %26 = getelementptr inbounds nuw %struct.CallInfo, ptr %25, i32 0, i32 4
  %27 = load i32, ptr %26, align 8, !tbaa !118
  store i32 %27, ptr %10, align 4, !tbaa !31
  br label %28

28:                                               ; preds = %44, %2
  %29 = load i32, ptr %10, align 4, !tbaa !31
  %30 = icmp ne i32 %29, 0
  br i1 %30, label %31, label %35

31:                                               ; preds = %28
  %32 = load ptr, ptr %8, align 8, !tbaa !70
  %33 = load ptr, ptr %9, align 8, !tbaa !70
  %34 = icmp ult ptr %32, %33
  br label %35

35:                                               ; preds = %31, %28
  %36 = phi i1 [ false, %28 ], [ %34, %31 ]
  br i1 %36, label %37, label %47

37:                                               ; preds = %35
  call void @llvm.lifetime.start.p0(i64 8, ptr %11) #11
  %38 = load ptr, ptr %8, align 8, !tbaa !70
  %39 = getelementptr inbounds nuw %struct.lua_TValue, ptr %38, i32 1
  store ptr %39, ptr %8, align 8, !tbaa !70
  store ptr %38, ptr %11, align 8, !tbaa !70
  call void @llvm.lifetime.start.p0(i64 8, ptr %12) #11
  %40 = load ptr, ptr %7, align 8, !tbaa !70
  %41 = getelementptr inbounds nuw %struct.lua_TValue, ptr %40, i32 1
  store ptr %41, ptr %7, align 8, !tbaa !70
  store ptr %40, ptr %12, align 8, !tbaa !70
  %42 = load ptr, ptr %11, align 8, !tbaa !70
  %43 = load ptr, ptr %12, align 8, !tbaa !70
  call void @llvm.memcpy.p0.p0.i64(ptr align 8 %43, ptr align 8 %42, i64 16, i1 false), !tbaa.struct !74
  call void @llvm.lifetime.end.p0(i64 8, ptr %12) #11
  call void @llvm.lifetime.end.p0(i64 8, ptr %11) #11
  br label %44

44:                                               ; preds = %37
  %45 = load i32, ptr %10, align 4, !tbaa !31
  %46 = add nsw i32 %45, -1
  store i32 %46, ptr %10, align 4, !tbaa !31
  br label %28, !llvm.loop !167

47:                                               ; preds = %35
  br label %48

48:                                               ; preds = %52, %47
  %49 = load i32, ptr %10, align 4, !tbaa !31
  %50 = add nsw i32 %49, -1
  store i32 %50, ptr %10, align 4, !tbaa !31
  %51 = icmp sgt i32 %49, 0
  br i1 %51, label %52, label %56

52:                                               ; preds = %48
  %53 = load ptr, ptr %7, align 8, !tbaa !70
  %54 = getelementptr inbounds nuw %struct.lua_TValue, ptr %53, i32 1
  store ptr %54, ptr %7, align 8, !tbaa !70
  %55 = getelementptr inbounds nuw %struct.lua_TValue, ptr %53, i32 0, i32 2
  store i32 0, ptr %55, align 4, !tbaa !73
  br label %48, !llvm.loop !168

56:                                               ; preds = %48
  %57 = load ptr, ptr %6, align 8, !tbaa !116
  %58 = load ptr, ptr %3, align 8, !tbaa !4
  %59 = getelementptr inbounds nuw %struct.lua_State, ptr %58, i32 0, i32 10
  store ptr %57, ptr %59, align 8, !tbaa !26
  %60 = load ptr, ptr %6, align 8, !tbaa !116
  %61 = getelementptr inbounds nuw %struct.CallInfo, ptr %60, i32 0, i32 0
  %62 = load ptr, ptr %61, align 8, !tbaa !32
  %63 = load ptr, ptr %3, align 8, !tbaa !4
  %64 = getelementptr inbounds nuw %struct.lua_State, ptr %63, i32 0, i32 8
  store ptr %62, ptr %64, align 8, !tbaa !10
  %65 = load ptr, ptr %5, align 8, !tbaa !116
  %66 = getelementptr inbounds nuw %struct.CallInfo, ptr %65, i32 0, i32 4
  %67 = load i32, ptr %66, align 8, !tbaa !118
  %68 = icmp eq i32 %67, -1
  br i1 %68, label %69, label %71

69:                                               ; preds = %56
  %70 = load ptr, ptr %7, align 8, !tbaa !70
  br label %75

71:                                               ; preds = %56
  %72 = load ptr, ptr %6, align 8, !tbaa !116
  %73 = getelementptr inbounds nuw %struct.CallInfo, ptr %72, i32 0, i32 2
  %74 = load ptr, ptr %73, align 8, !tbaa !27
  br label %75

75:                                               ; preds = %71, %69
  %76 = phi ptr [ %70, %69 ], [ %74, %71 ]
  %77 = load ptr, ptr %3, align 8, !tbaa !4
  %78 = getelementptr inbounds nuw %struct.lua_State, ptr %77, i32 0, i32 7
  store ptr %76, ptr %78, align 8, !tbaa !25
  call void @llvm.lifetime.end.p0(i64 4, ptr %10) #11
  call void @llvm.lifetime.end.p0(i64 8, ptr %9) #11
  call void @llvm.lifetime.end.p0(i64 8, ptr %8) #11
  call void @llvm.lifetime.end.p0(i64 8, ptr %7) #11
  call void @llvm.lifetime.end.p0(i64 8, ptr %6) #11
  call void @llvm.lifetime.end.p0(i64 8, ptr %5) #11
  ret void
}