; Function Attrs: mustprogress nofree norecurse nosync nounwind memory(readwrite, inaccessiblemem: none) uwtable
define hidden void @_Z12luau_poscallP9lua_StateP10lua_TValue(ptr noundef captures(none) %0, ptr noundef readonly %1) local_unnamed_addr #5 {
  %3 = getelementptr inbounds nuw i8, ptr %0, i64 32
  %4 = load ptr, ptr %3, align 8, !tbaa !21
  %5 = getelementptr inbounds i8, ptr %4, i64 -40
  %6 = getelementptr inbounds nuw i8, ptr %4, i64 8
  %7 = load ptr, ptr %6, align 8, !tbaa !29
  %8 = getelementptr inbounds nuw i8, ptr %0, i64 8
  %9 = load ptr, ptr %8, align 8, !tbaa !20
  %10 = getelementptr inbounds nuw i8, ptr %4, i64 32
  %11 = load i32, ptr %10, align 8, !tbaa !108
  %12 = icmp ne i32 %11, 0
  %13 = icmp ult ptr %1, %9
  %14 = select i1 %12, i1 %13, i1 false
  br i1 %14, label %.lr.ph, label %.preheader

.preheader:                                       ; preds = %.lr.ph, %2
  %.024.lcssa = phi i32 [ %11, %2 ], [ %18, %.lr.ph ]
  %.0.lcssa = phi ptr [ %7, %2 ], [ %17, %.lr.ph ]
  %15 = icmp sgt i32 %.024.lcssa, 0
  br i1 %15, label %.lr.ph32, label %._crit_edge

.lr.ph:                                           ; preds = %2, %.lr.ph
  %.028 = phi ptr [ %17, %.lr.ph ], [ %7, %2 ]
  %.02327 = phi ptr [ %16, %.lr.ph ], [ %1, %2 ]
  %.02426 = phi i32 [ %18, %.lr.ph ], [ %11, %2 ]
  %16 = getelementptr inbounds nuw i8, ptr %.02327, i64 16
  %17 = getelementptr inbounds nuw i8, ptr %.028, i64 16
  tail call void @llvm.memcpy.p0.p0.i64(ptr noundef nonnull align 8 dereferenceable(16) %.028, ptr noundef nonnull align 8 dereferenceable(16) %.02327, i64 16, i1 false), !tbaa.struct !64
  %18 = add nsw i32 %.02426, -1
  %19 = icmp ne i32 %18, 0
  %20 = icmp ult ptr %16, %9
  %21 = select i1 %19, i1 %20, i1 false
  br i1 %21, label %.lr.ph, label %.preheader, !llvm.loop !157

.lr.ph32:                                         ; preds = %.preheader, %.lr.ph32
  %.131 = phi ptr [ %23, %.lr.ph32 ], [ %.0.lcssa, %.preheader ]
  %.12530 = phi i32 [ %22, %.lr.ph32 ], [ %.024.lcssa, %.preheader ]
  %22 = add nsw i32 %.12530, -1
  %23 = getelementptr inbounds nuw i8, ptr %.131, i64 16
  %24 = getelementptr inbounds nuw i8, ptr %.131, i64 12
  store i32 0, ptr %24, align 4, !tbaa !63
  %25 = icmp samesign ugt i32 %.12530, 1
  br i1 %25, label %.lr.ph32, label %._crit_edge, !llvm.loop !158

._crit_edge:                                      ; preds = %.lr.ph32, %.preheader
  %.1.lcssa = phi ptr [ %.0.lcssa, %.preheader ], [ %23, %.lr.ph32 ]
  store ptr %5, ptr %3, align 8, !tbaa !21
  %26 = load ptr, ptr %5, align 8, !tbaa !26
  %27 = getelementptr inbounds nuw i8, ptr %0, i64 16
  store ptr %26, ptr %27, align 8, !tbaa !4
  %28 = load i32, ptr %10, align 8, !tbaa !108
  %29 = icmp eq i32 %28, -1
  br i1 %29, label %33, label %30

30:                                               ; preds = %._crit_edge
  %31 = getelementptr inbounds i8, ptr %4, i64 -24
  %32 = load ptr, ptr %31, align 8, !tbaa !22
  br label %33

33:                                               ; preds = %._crit_edge, %30
  %34 = phi ptr [ %32, %30 ], [ %.1.lcssa, %._crit_edge ]
  store ptr %34, ptr %8, align 8, !tbaa !20
  ret void
}